target datalayout = "e-m:e-p270:32:32-p271:32:32-p272:64:64-i64:64-i128:128-f80:128-n8:16:32:64-S128"
target triple = "x86_64-pc-linux-gnu"

%struct.If_Cut_t_ = type <{ float, float, float, float, i32, i32, i32, i64, [0 x i32] }>
%struct.If_Man_t_ = type { ptr, ptr, ptr, ptr, ptr, ptr, ptr, ptr, [5 x i32], i32, float, float, float, float, i32, float, i32, i32, [4 x ptr], ptr, i32, i32, i32, ptr, [3 x [32 x i32]], i32, i32, i32, ptr, ptr, ptr, ptr, ptr, ptr, ptr, i32, i32, i32, [16 x i32], i32, i32, i32, i32, ptr, ptr, ptr, ptr, ptr, i32, i32, [32 x i32], [32 x i32], i32, i32, i32, i32, ptr, [16 x ptr], [16 x ptr], [16 x ptr], [16 x ptr], [16 x ptr], [16 x ptr], [16 x ptr], ptr, ptr, ptr, ptr, [32 x i8], i32, i32, i32, [6 x i64], [2 x i32], [2 x i32], ptr, [15 x i32], ptr, ptr, ptr, [16 x i32], ptr, ptr, ptr, ptr, [2 x i32], [2 x i32], [2 x ptr], ptr }
%struct.If_Par_t_ = type { i32, i32, i32, i32, i32, i32, float, float, i32, i32, i32, i32, i32, i32, i32, i32, i32, i32, i32, i32, i32, i32, i32, i32, i32, i32, i32, i32, i32, i32, i32, i32, i32, i32, i32, i32, i32, i32, i32, i32, i32, i32, i32, i32, i32, i32, i32, i32, i32, i32, ptr, i32, float, i32, i32, i32, i32, i32, i32, i32, i32, i32, i32, i32, i32, i32, i32, float, float, float, ptr, ptr, ptr, ptr, ptr, ptr, ptr, ptr, ptr }
%struct.If_Obj_t_ = type { i32, i32, i32, i32, i32, i32, ptr, ptr, ptr, float, float, float, %union.anon, ptr, %struct.If_Cut_t_ }
%union.anon = type { ptr }
%struct.If_LibLut_t_ = type { ptr, i32, i32, [33 x float], [33 x [33 x float]] }
%struct.Vec_Ptr_t_ = type { i32, i32, ptr }

; Function Attrs: inlinehint nounwind uwtable
define internal ptr @Vec_PtrEntry(ptr noundef %0, i32 noundef %1) #2 {
  %3 = alloca ptr, align 8
  %4 = alloca i32, align 4
  store ptr %0, ptr %3, align 8, !tbaa !134
  store i32 %1, ptr %4, align 4, !tbaa !8
  %5 = load ptr, ptr %3, align 8, !tbaa !134
  %6 = getelementptr inbounds nuw %struct.Vec_Ptr_t_, ptr %5, i32 0, i32 2
  %7 = load ptr, ptr %6, align 8, !tbaa !137
  %8 = load i32, ptr %4, align 4, !tbaa !8
  %9 = sext i32 %8 to i64
  %10 = getelementptr inbounds ptr, ptr %7, i64 %9
  %11 = load ptr, ptr %10, align 8, !tbaa !138
  ret ptr %11
}

; Function Attrs: inlinehint nounwind uwtable
define internal ptr @If_ObjCutBest(ptr noundef %0) #2 {
  %2 = alloca ptr, align 8
  store ptr %0, ptr %2, align 8, !tbaa !99
  %3 = load ptr, ptr %2, align 8, !tbaa !99
  %4 = getelementptr inbounds nuw %struct.If_Obj_t_, ptr %3, i32 0, i32 14
  ret ptr %4
}

; Function Attrs: inlinehint nounwind uwtable
define internal i32 @If_ObjIsConst1(ptr noundef %0) #2 {
  %2 = alloca ptr, align 8
  store ptr %0, ptr %2, align 8, !tbaa !99
  %3 = load ptr, ptr %2, align 8, !tbaa !99
  %4 = load i32, ptr %3, align 8
  %5 = and i32 %4, 15
  %6 = icmp eq i32 %5, 1
  %7 = zext i1 %6 to i32
  ret i32 %7
}

; Function Attrs: inlinehint nounwind uwtable
define internal ptr @If_ManObj(ptr noundef %0, i32 noundef %1) #2 {
  %3 = alloca ptr, align 8
  %4 = alloca i32, align 4
  store ptr %0, ptr %3, align 8, !tbaa !35
  store i32 %1, ptr %4, align 4, !tbaa !8
  %5 = load ptr, ptr %3, align 8, !tbaa !35
  %6 = getelementptr inbounds nuw %struct.If_Man_t_, ptr %5, i32 0, i32 5
  %7 = load ptr, ptr %6, align 8, !tbaa !104
  %8 = load i32, ptr %4, align 4, !tbaa !8
  %9 = call ptr @Vec_PtrEntry(ptr noundef %7, i32 noundef %8)
  ret ptr %9
}

; Function Attrs: inlinehint nounwind uwtable
define internal float @If_CutLutArea(ptr noundef %0, ptr noundef %1) #2 {
  %3 = alloca ptr, align 8
  %4 = alloca ptr, align 8
  store ptr %0, ptr %3, align 8, !tbaa !35
  store ptr %1, ptr %4, align 8, !tbaa !15
  %5 = load ptr, ptr %4, align 8, !tbaa !15
  %6 = getelementptr inbounds nuw %struct.If_Cut_t_, ptr %5, i32 0, i32 7
  %7 = load i64, ptr %6, align 4
  %8 = lshr i64 %7, 15
  %9 = and i64 %8, 1
  %10 = trunc i64 %9 to i32
  %11 = icmp ne i32 %10, 0
  br i1 %11, label %12, label %19

12:                                               ; preds = %2
  %13 = load ptr, ptr %3, align 8, !tbaa !35
  %14 = getelementptr inbounds nuw %struct.If_Man_t_, ptr %13, i32 0, i32 1
  %15 = load ptr, ptr %14, align 8, !tbaa !65
  %16 = getelementptr inbounds nuw %struct.If_Par_t_, ptr %15, i32 0, i32 11
  %17 = load i32, ptr %16, align 4, !tbaa !110
  %18 = sitofp i32 %17 to float
  br label %62

19:                                               ; preds = %2
  %20 = load ptr, ptr %4, align 8, !tbaa !15
  %21 = getelementptr inbounds nuw %struct.If_Cut_t_, ptr %20, i32 0, i32 7
  %22 = load i64, ptr %21, align 4
  %23 = lshr i64 %22, 13
  %24 = and i64 %23, 1
  %25 = trunc i64 %24 to i32
  %26 = icmp ne i32 %25, 0
  br i1 %26, label %27, label %34

27:                                               ; preds = %19
  %28 = load ptr, ptr %4, align 8, !tbaa !15
  %29 = getelementptr inbounds nuw %struct.If_Cut_t_, ptr %28, i32 0, i32 7
  %30 = load i64, ptr %29, align 4
  %31 = and i64 %30, 4095
  %32 = trunc i64 %31 to i32
  %33 = uitofp i32 %32 to float
  br label %60

34:                                               ; preds = %19
  %35 = load ptr, ptr %3, align 8, !tbaa !35
  %36 = getelementptr inbounds nuw %struct.If_Man_t_, ptr %35, i32 0, i32 1
  %37 = load ptr, ptr %36, align 8, !tbaa !65
  %38 = getelementptr inbounds nuw %struct.If_Par_t_, ptr %37, i32 0, i32 70
  %39 = load ptr, ptr %38, align 8, !tbaa !111
  %40 = icmp ne ptr %39, null
  br i1 %40, label %41, label %57

41:                                               ; preds = %34
  %42 = load ptr, ptr %3, align 8, !tbaa !35
  %43 = getelementptr inbounds nuw %struct.If_Man_t_, ptr %42, i32 0, i32 1
  %44 = load ptr, ptr %43, align 8, !tbaa !65
  %45 = getelementptr inbounds nuw %struct.If_Par_t_, ptr %44, i32 0, i32 70
  %46 = load ptr, ptr %45, align 8, !tbaa !111
  %47 = getelementptr inbounds nuw %struct.If_LibLut_t_, ptr %46, i32 0, i32 3
  %48 = load ptr, ptr %4, align 8, !tbaa !15
  %49 = getelementptr inbounds nuw %struct.If_Cut_t_, ptr %48, i32 0, i32 7
  %50 = load i64, ptr %49, align 4
  %51 = lshr i64 %50, 24
  %52 = and i64 %51, 255
  %53 = trunc i64 %52 to i32
  %54 = zext i32 %53 to i64
  %55 = getelementptr inbounds nuw [33 x float], ptr %47, i64 0, i64 %54
  %56 = load float, ptr %55, align 4, !tbaa !106
  br label %58

57:                                               ; preds = %34
  br label %58

58:                                               ; preds = %57, %41
  %59 = phi float [ %56, %41 ], [ 1.000000e+00, %57 ]
  br label %60

60:                                               ; preds = %58, %27
  %61 = phi float [ %33, %27 ], [ %59, %58 ]
  br label %62

62:                                               ; preds = %60, %12
  %63 = phi float [ %18, %12 ], [ %61, %60 ]
  ret float %63
}

; Function Attrs: nounwind uwtable
define float @If_CutAreaFlow(ptr noundef %0, ptr noundef %1) #0 {
  %3 = alloca ptr, align 8
  %4 = alloca ptr, align 8
  %5 = alloca ptr, align 8
  %6 = alloca float, align 4
  %7 = alloca float, align 4
  %8 = alloca i32, align 4
  store ptr %0, ptr %3, align 8, !tbaa !35
  store ptr %1, ptr %4, align 8, !tbaa !15
  call void @llvm.lifetime.start.p0(i64 8, ptr %5) #9
  call void @llvm.lifetime.start.p0(i64 4, ptr %6) #9
  call void @llvm.lifetime.start.p0(i64 4, ptr %7) #9
  call void @llvm.lifetime.start.p0(i64 4, ptr %8) #9
  %9 = load ptr, ptr %3, align 8, !tbaa !35
  %10 = load ptr, ptr %4, align 8, !tbaa !15
  %11 = call float @If_CutLutArea(ptr noundef %9, ptr noundef %10)
  store float %11, ptr %6, align 4, !tbaa !106
  store i32 0, ptr %8, align 4, !tbaa !8
  br label %12

12:                                               ; preds = %72, %2
  %13 = load i32, ptr %8, align 4, !tbaa !8
  %14 = load ptr, ptr %4, align 8, !tbaa !15
  %15 = getelementptr inbounds nuw %struct.If_Cut_t_, ptr %14, i32 0, i32 7
  %16 = load i64, ptr %15, align 4
  %17 = lshr i64 %16, 24
  %18 = and i64 %17, 255
  %19 = trunc i64 %18 to i32
  %20 = icmp slt i32 %13, %19
  br i1 %20, label %21, label %31

21:                                               ; preds = %12
  %22 = load ptr, ptr %3, align 8, !tbaa !35
  %23 = load ptr, ptr %4, align 8, !tbaa !15
  %24 = getelementptr inbounds nuw %struct.If_Cut_t_, ptr %23, i32 0, i32 8
  %25 = load i32, ptr %8, align 4, !tbaa !8
  %26 = sext i32 %25 to i64
  %27 = getelementptr inbounds [0 x i32], ptr %24, i64 0, i64 %26
  %28 = load i32, ptr %27, align 4, !tbaa !8
  %29 = call ptr @If_ManObj(ptr noundef %22, i32 noundef %28)
  store ptr %29, ptr %5, align 8, !tbaa !99
  %30 = icmp ne ptr %29, null
  br label %31

31:                                               ; preds = %21, %12
  %32 = phi i1 [ false, %12 ], [ %30, %21 ]
  br i1 %32, label %33, label %75

33:                                               ; preds = %31
  %34 = load ptr, ptr %5, align 8, !tbaa !99
  %35 = getelementptr inbounds nuw %struct.If_Obj_t_, ptr %34, i32 0, i32 3
  %36 = load i32, ptr %35, align 4, !tbaa !107
  %37 = icmp eq i32 %36, 0
  br i1 %37, label %42, label %38

38:                                               ; preds = %33
  %39 = load ptr, ptr %5, align 8, !tbaa !99
  %40 = call i32 @If_ObjIsConst1(ptr noundef %39)
  %41 = icmp ne i32 %40, 0
  br i1 %41, label %42, label %47

42:                                               ; preds = %38, %33
  %43 = load ptr, ptr %5, align 8, !tbaa !99
  %44 = call ptr @If_ObjCutBest(ptr noundef %43)
  %45 = getelementptr inbounds nuw %struct.If_Cut_t_, ptr %44, i32 0, i32 0
  %46 = load float, ptr %45, align 4, !tbaa !64
  store float %46, ptr %7, align 4, !tbaa !106
  br label %56

47:                                               ; preds = %38
  %48 = load ptr, ptr %5, align 8, !tbaa !99
  %49 = call ptr @If_ObjCutBest(ptr noundef %48)
  %50 = getelementptr inbounds nuw %struct.If_Cut_t_, ptr %49, i32 0, i32 0
  %51 = load float, ptr %50, align 4, !tbaa !64
  %52 = load ptr, ptr %5, align 8, !tbaa !99
  %53 = getelementptr inbounds nuw %struct.If_Obj_t_, ptr %52, i32 0, i32 9
  %54 = load float, ptr %53, align 8, !tbaa !108
  %55 = fdiv float %51, %54
  store float %55, ptr %7, align 4, !tbaa !106
  br label %56

56:                                               ; preds = %47, %42
  %57 = load float, ptr %6, align 4, !tbaa !106
  %58 = fcmp oge float %57, 0x4693B8B5C0000000
  br i1 %58, label %62, label %59

59:                                               ; preds = %56
  %60 = load float, ptr %7, align 4, !tbaa !106
  %61 = fcmp oge float %60, 0x4693B8B5C0000000
  br i1 %61, label %62, label %63

62:                                               ; preds = %59, %56
  store float 0x4693B8B5C0000000, ptr %6, align 4, !tbaa !106
  br label %71

63:                                               ; preds = %59
  %64 = load float, ptr %7, align 4, !tbaa !106
  %65 = load float, ptr %6, align 4, !tbaa !106
  %66 = fadd float %65, %64
  store float %66, ptr %6, align 4, !tbaa !106
  %67 = load float, ptr %6, align 4, !tbaa !106
  %68 = fcmp ogt float %67, 0x4693B8B5C0000000
  br i1 %68, label %69, label %70

69:                                               ; preds = %63
  store float 0x4693B8B5C0000000, ptr %6, align 4, !tbaa !106
  br label %70

70:                                               ; preds = %69, %63
  br label %71

71:                                               ; preds = %70, %62
  br label %72

72:                                               ; preds = %71
  %73 = load i32, ptr %8, align 4, !tbaa !8
  %74 = add nsw i32 %73, 1
  store i32 %74, ptr %8, align 4, !tbaa !8
  br label %12, !llvm.loop !109

75:                                               ; preds = %31
  %76 = load float, ptr %6, align 4, !tbaa !106
  call void @llvm.lifetime.end.p0(i64 4, ptr %8) #9
  call void @llvm.lifetime.end.p0(i64 4, ptr %7) #9
  call void @llvm.lifetime.end.p0(i64 4, ptr %6) #9
  call void @llvm.lifetime.end.p0(i64 8, ptr %5) #9
  ret float %76
}