; Function Attrs: nofree norecurse nosync nounwind memory(read, inaccessiblemem: none) uwtable
define float @If_CutAreaFlow(ptr noundef readonly captures(none) %0, ptr noundef readonly captures(none) %1) local_unnamed_addr #7 {
  %3 = getelementptr i8, ptr %1, i64 28
  %.val24 = load i64, ptr %3, align 4
  %4 = and i64 %.val24, 32768
  %.not.i = icmp eq i64 %4, 0
  br i1 %.not.i, label %11, label %5

5:                                                ; preds = %2
  %6 = getelementptr inbounds nuw i8, ptr %0, i64 8
  %7 = load ptr, ptr %6, align 8, !tbaa !57
  %8 = getelementptr inbounds nuw i8, ptr %7, i64 44
  %9 = load i32, ptr %8, align 4, !tbaa !101
  %10 = sitofp i32 %9 to float
  br label %If_CutLutArea.exit

11:                                               ; preds = %2
  %12 = and i64 %.val24, 8192
  %.not7.i = icmp eq i64 %12, 0
  br i1 %.not7.i, label %17, label %13

13:                                               ; preds = %11
  %14 = trunc i64 %.val24 to i32
  %15 = and i32 %14, 4095
  %16 = uitofp nneg i32 %15 to float
  br label %If_CutLutArea.exit

17:                                               ; preds = %11
  %18 = getelementptr inbounds nuw i8, ptr %0, i64 8
  %19 = load ptr, ptr %18, align 8, !tbaa !57
  %20 = getelementptr inbounds nuw i8, ptr %19, i64 288
  %21 = load ptr, ptr %20, align 8, !tbaa !102
  %.not8.i = icmp eq ptr %21, null
  br i1 %.not8.i, label %If_CutLutArea.exit, label %22

22:                                               ; preds = %17
  %23 = getelementptr inbounds nuw i8, ptr %21, i64 16
  %24 = lshr i64 %.val24, 24
  %25 = and i64 %24, 255
  %26 = getelementptr inbounds nuw [33 x float], ptr %23, i64 0, i64 %25
  %27 = load float, ptr %26, align 4, !tbaa !103
  br label %If_CutLutArea.exit

If_CutLutArea.exit:                               ; preds = %5, %13, %17, %22
  %28 = phi float [ %10, %5 ], [ %16, %13 ], [ %27, %22 ], [ 1.000000e+00, %17 ]
  %29 = getelementptr inbounds nuw i8, ptr %1, i64 36
  %30 = and i64 %.val24, 4278190080
  %.not31 = icmp eq i64 %30, 0
  br i1 %.not31, label %.critedge, label %.lr.ph

.lr.ph:                                           ; preds = %If_CutLutArea.exit
  %31 = lshr i64 %.val24, 24
  %32 = getelementptr i8, ptr %0, i64 40
  %.val = load ptr, ptr %32, align 8, !tbaa !92
  %33 = getelementptr i8, ptr %.val, i64 8
  %.val.val = load ptr, ptr %33, align 8, !tbaa !93
  %wide.trip.count = and i64 %31, 255
  br label %34

34:                                               ; preds = %.lr.ph, %62
  %indvars.iv = phi i64 [ 0, %.lr.ph ], [ %indvars.iv.next, %62 ]
  %.02027 = phi float [ %28, %.lr.ph ], [ %.1, %62 ]
  %35 = getelementptr inbounds nuw [0 x i32], ptr %29, i64 0, i64 %indvars.iv
  %36 = load i32, ptr %35, align 4, !tbaa !14
  %37 = sext i32 %36 to i64
  %38 = getelementptr inbounds ptr, ptr %.val.val, i64 %37
  %39 = load ptr, ptr %38, align 8, !tbaa !95
  %.not = icmp eq ptr %39, null
  br i1 %.not, label %.critedge, label %40

40:                                               ; preds = %34
  %41 = getelementptr inbounds nuw i8, ptr %39, i64 12
  %42 = load i32, ptr %41, align 4, !tbaa !104
  %43 = icmp eq i32 %42, 0
  br i1 %43, label %46, label %44

44:                                               ; preds = %40
  %.val25 = load i32, ptr %39, align 8
  %45 = and i32 %.val25, 15
  %.not26 = icmp eq i32 %45, 1
  br i1 %.not26, label %46, label %49

46:                                               ; preds = %44, %40
  %47 = getelementptr inbounds nuw i8, ptr %39, i64 80
  %48 = load float, ptr %47, align 4, !tbaa !56
  br label %55

49:                                               ; preds = %44
  %50 = getelementptr inbounds nuw i8, ptr %39, i64 80
  %51 = load float, ptr %50, align 4, !tbaa !56
  %52 = getelementptr inbounds nuw i8, ptr %39, i64 48
  %53 = load float, ptr %52, align 8, !tbaa !105
  %54 = fdiv float %51, %53
  br label %55

55:                                               ; preds = %49, %46
  %.019 = phi float [ %48, %46 ], [ %54, %49 ]
  %56 = fcmp oge float %.02027, 0x4693B8B5C0000000
  %57 = fcmp oge float %.019, 0x4693B8B5C0000000
  %or.cond = select i1 %56, i1 true, i1 %57
  br i1 %or.cond, label %62, label %58

58:                                               ; preds = %55
  %59 = fadd float %.02027, %.019
  %60 = fcmp ogt float %59, 0x4693B8B5C0000000
  br i1 %60, label %61, label %62

61:                                               ; preds = %58
  br label %62

62:                                               ; preds = %55, %61, %58
  %.1 = phi float [ 0x4693B8B5C0000000, %61 ], [ %59, %58 ], [ 0x4693B8B5C0000000, %55 ]
  %indvars.iv.next = add nuw nsw i64 %indvars.iv, 1
  %exitcond.not = icmp eq i64 %indvars.iv.next, %wide.trip.count
  br i1 %exitcond.not, label %.critedge, label %34, !llvm.loop !106

.critedge:                                        ; preds = %34, %62, %If_CutLutArea.exit
  %.020.lcssa = phi float [ %28, %If_CutLutArea.exit ], [ %.1, %62 ], [ %.02027, %34 ]
  ret float %.020.lcssa
}